target datalayout = "e-m:e-p270:32:32-p271:32:32-p272:64:64-i64:64-i128:128-f80:128-n8:16:32:64-S128"
target triple = "x86_64-unknown-linux-gnu"

%"class.base::Value" = type <{ ptr, i32, [4 x i8] }>
%"class.base::FundamentalValue" = type { %"class.base::Value.base", %union.anon.2 }
%"class.base::Value.base" = type <{ ptr, i32 }>
%union.anon.2 = type { double }

; Function Attrs: mustprogress nounwind uwtable
define linkonce_odr dso_local noundef zeroext i1 @_ZNK4base5Value6IsTypeENS0_4TypeE(ptr noundef nonnull align 8 dereferenceable(12) %this, i32 noundef %type) #0 comdat align 2 {
entry:
  %this.addr = alloca ptr, align 8
  %type.addr = alloca i32, align 4
  store ptr %this, ptr %this.addr, align 8
  store i32 %type, ptr %type.addr, align 4
  %this1 = load ptr, ptr %this.addr, align 8
  %0 = load i32, ptr %type.addr, align 4
  %type_ = getelementptr inbounds %"class.base::Value", ptr %this1, i32 0, i32 1
  %1 = load i32, ptr %type_, align 8
  %cmp = icmp eq i32 %0, %1
  ret i1 %cmp
}

; Function Attrs: mustprogress uwtable
define dso_local noundef zeroext i1 @_ZNK4base16FundamentalValue11GetAsDoubleEPd(ptr noundef nonnull align 8 dereferenceable(24) %this, ptr noundef %out_value) unnamed_addr #2 align 2 {
entry:
  %this.addr = alloca ptr, align 8
  %out_value.addr = alloca ptr, align 8
  store ptr %this, ptr %this.addr, align 8
  store ptr %out_value, ptr %out_value.addr, align 8
  %this1 = load ptr, ptr %this.addr, align 8
  %0 = load ptr, ptr %out_value.addr, align 8
  %tobool = icmp ne ptr %0, null
  br i1 %tobool, label %land.lhs.true, label %if.else

land.lhs.true:                                    ; preds = %entry
  %call = call noundef zeroext i1 @_ZNK4base5Value6IsTypeENS0_4TypeE(ptr noundef nonnull align 8 dereferenceable(12) %this1, i32 noundef 3)
  br i1 %call, label %if.then, label %if.else

if.then:                                          ; preds = %land.lhs.true
  %1 = getelementptr inbounds %"class.base::FundamentalValue", ptr %this1, i32 0, i32 1
  %2 = load double, ptr %1, align 8
  %3 = load ptr, ptr %out_value.addr, align 8
  store double %2, ptr %3, align 8
  br label %if.end6

if.else:                                          ; preds = %land.lhs.true, %entry
  %4 = load ptr, ptr %out_value.addr, align 8
  %tobool2 = icmp ne ptr %4, null
  br i1 %tobool2, label %land.lhs.true3, label %if.end

land.lhs.true3:                                   ; preds = %if.else
  %call4 = call noundef zeroext i1 @_ZNK4base5Value6IsTypeENS0_4TypeE(ptr noundef nonnull align 8 dereferenceable(12) %this1, i32 noundef 2)
  br i1 %call4, label %if.then5, label %if.end

if.then5:                                         ; preds = %land.lhs.true3
  %5 = getelementptr inbounds %"class.base::FundamentalValue", ptr %this1, i32 0, i32 1
  %6 = load i32, ptr %5, align 8
  %conv = sitofp i32 %6 to double
  %7 = load ptr, ptr %out_value.addr, align 8
  store double %conv, ptr %7, align 8
  br label %if.end

if.end:                                           ; preds = %if.then5, %land.lhs.true3, %if.else
  br label %if.end6

if.end6:                                          ; preds = %if.end, %if.then
  %call7 = call noundef zeroext i1 @_ZNK4base5Value6IsTypeENS0_4TypeE(ptr noundef nonnull align 8 dereferenceable(12) %this1, i32 noundef 3)
  br i1 %call7, label %lor.end, label %lor.rhs

lor.rhs:                                          ; preds = %if.end6
  %call8 = call noundef zeroext i1 @_ZNK4base5Value6IsTypeENS0_4TypeE(ptr noundef nonnull align 8 dereferenceable(12) %this1, i32 noundef 2)
  br label %lor.end

lor.end:                                          ; preds = %lor.rhs, %if.end6
  %8 = phi i1 [ true, %if.end6 ], [ %call8, %lor.rhs ]
  ret i1 %8
}