; Function Attrs: mustprogress nofree norecurse nosync nounwind willreturn memory(argmem: readwrite) uwtable
define dso_local noundef zeroext i1 @_ZNK4base16FundamentalValue11GetAsDoubleEPd(ptr nocapture noundef nonnull readonly align 8 dereferenceable(24) %this, ptr noundef writeonly %out_value) unnamed_addr #7 align 2 {
entry:
  %tobool.not = icmp eq ptr %out_value, null
  br i1 %tobool.not, label %if.end6, label %land.lhs.true

land.lhs.true:                                    ; preds = %entry
  %type_.i = getelementptr inbounds i8, ptr %this, i64 8
  %0 = load i32, ptr %type_.i, align 8
  switch i32 %0, label %if.end6 [
    i32 3, label %if.then
    i32 2, label %if.then5
  ]

if.then:                                          ; preds = %land.lhs.true
  %1 = getelementptr inbounds i8, ptr %this, i64 16
  %2 = load double, ptr %1, align 8
  br label %if.end6.sink.split

if.then5:                                         ; preds = %land.lhs.true
  %3 = getelementptr inbounds i8, ptr %this, i64 16
  %4 = load i32, ptr %3, align 8
  %conv = sitofp i32 %4 to double
  br label %if.end6.sink.split

if.end6.sink.split:                               ; preds = %if.then, %if.then5
  %conv.sink = phi double [ %conv, %if.then5 ], [ %2, %if.then ]
  store double %conv.sink, ptr %out_value, align 8
  br label %if.end6

if.end6:                                          ; preds = %if.end6.sink.split, %land.lhs.true, %entry
  %type_.i6 = getelementptr inbounds i8, ptr %this, i64 8
  %5 = load i32, ptr %type_.i6, align 8
  %6 = and i32 %5, -2
  %spec.select = icmp eq i32 %6, 2
  ret i1 %spec.select
}